; Function Attrs: mustprogress nounwind uwtable
define void @_ZN5folly14AsyncUDPSocket12handlerReadyEt(ptr noundef nonnull align 16 dereferenceable(768) %0, i16 noundef zeroext %1) unnamed_addr #0 align 2 personality ptr @__gxx_personality_v0 {
  %3 = zext i16 %1 to i32
  %4 = and i32 %3, 6
  %.not = icmp eq i32 %4, 0
  br i1 %.not, label %9, label %5

5:                                                ; preds = %2
  %6 = tail call noundef i64 @_ZN5folly14AsyncUDPSocket17handleErrMessagesEv(ptr noundef nonnull align 16 dereferenceable(768) %0) #36
  %.not2 = icmp ne i64 %6, 0
  %7 = and i32 %3, 2
  %.not3 = icmp eq i32 %7, 0
  %or.cond = or i1 %.not3, %.not2
  br i1 %or.cond, label %9, label %8

8:                                                ; preds = %5
  tail call void @_ZN5folly14AsyncUDPSocket10handleReadEv(ptr noundef nonnull align 16 dereferenceable(768) %0) #36
  br label %9

9:                                                ; preds = %2, %5, %8
  ret void
}